; Function Attrs: nounwind uwtable
define hidden range(i32 0, 2) i32 @HMAC_Init_ex(ptr noundef %ctx, ptr noundef %key, i64 noundef %key_len, ptr noundef %md, ptr noundef %impl) local_unnamed_addr #0 {
entry:
  %pad = alloca [128 x i8], align 16
  %key_block = alloca [128 x i8], align 16
  %key_block_len = alloca i32, align 4
  %cmp = icmp eq ptr %md, null
  %.pre = load ptr, ptr %ctx, align 8
  %spec.select = select i1 %cmp, ptr %.pre, ptr %md
  %cmp3 = icmp ne ptr %spec.select, %.pre
  %cmp4 = icmp ne ptr %key, null
  %or.cond = or i1 %cmp4, %cmp3
  br i1 %or.cond, label %if.then5, label %if.end65

if.then5:                                         ; preds = %entry
  %call = tail call i64 @EVP_MD_block_size(ptr noundef %spec.select) #5
  %cmp6 = icmp ult i64 %call, %key_len
  br i1 %cmp6, label %if.then7, label %if.else

if.then7:                                         ; preds = %if.then5
  %md_ctx = getelementptr inbounds nuw i8, ptr %ctx, i64 8
  %call8 = tail call i32 @EVP_DigestInit_ex(ptr noundef nonnull %md_ctx, ptr noundef %spec.select, ptr noundef %impl) #5
  %tobool.not = icmp eq i32 %call8, 0
  br i1 %tobool.not, label %return, label %lor.lhs.false9

lor.lhs.false9:                                   ; preds = %if.then7
  %call11 = tail call i32 @EVP_DigestUpdate(ptr noundef nonnull %md_ctx, ptr noundef %key, i64 noundef %key_len) #5
  %tobool12.not = icmp eq i32 %call11, 0
  br i1 %tobool12.not, label %return, label %lor.lhs.false13

lor.lhs.false13:                                  ; preds = %lor.lhs.false9
  %call15 = call i32 @EVP_DigestFinal_ex(ptr noundef nonnull %md_ctx, ptr noundef nonnull %key_block, ptr noundef nonnull %key_block_len) #5
  %tobool16.not = icmp eq i32 %call15, 0
  br i1 %tobool16.not, label %return, label %if.end20thread-pre-split

if.else:                                          ; preds = %if.then5
  call void @llvm.memcpy.p0.p0.i64(ptr nonnull align 16 %key_block, ptr align 1 %key, i64 %key_len, i1 false)
  %conv = trunc i64 %key_len to i32
  store i32 %conv, ptr %key_block_len, align 4
  br label %if.end20

if.end20thread-pre-split:                         ; preds = %lor.lhs.false13
  %.pr = load i32, ptr %key_block_len, align 4
  br label %if.end20

if.end20:                                         ; preds = %if.end20thread-pre-split, %if.else
  %0 = phi i32 [ %.pr, %if.end20thread-pre-split ], [ %conv, %if.else ]
  %cmp21.not = icmp eq i32 %0, 128
  br i1 %cmp21.not, label %for.body.preheader, label %if.then23

if.then23:                                        ; preds = %if.end20
  %idxprom = zext i32 %0 to i64
  %arrayidx = getelementptr inbounds nuw [128 x i8], ptr %key_block, i64 0, i64 %idxprom
  %sub = sub nsw i64 128, %idxprom
  call void @llvm.memset.p0.i64(ptr nonnull align 1 %arrayidx, i8 0, i64 %sub, i1 false)
  br label %for.body.preheader

for.body.preheader:                               ; preds = %if.then23, %if.end20
  br label %for.body

for.body:                                         ; preds = %for.body.preheader, %for.body
  %i.034 = phi i64 [ %inc, %for.body ], [ 0, %for.body.preheader ]
  %arrayidx28 = getelementptr inbounds nuw [128 x i8], ptr %key_block, i64 0, i64 %i.034
  %1 = load i8, ptr %arrayidx28, align 1
  %2 = xor i8 %1, 54
  %arrayidx31 = getelementptr inbounds nuw [128 x i8], ptr %pad, i64 0, i64 %i.034
  store i8 %2, ptr %arrayidx31, align 1
  %inc = add nuw nsw i64 %i.034, 1
  %exitcond.not = icmp eq i64 %inc, 128
  br i1 %exitcond.not, label %for.end, label %for.body, !llvm.loop !7

for.end:                                          ; preds = %for.body
  %i_ctx = getelementptr inbounds nuw i8, ptr %ctx, i64 40
  %call32 = call i32 @EVP_DigestInit_ex(ptr noundef nonnull %i_ctx, ptr noundef %spec.select, ptr noundef %impl) #5
  %tobool33.not = icmp eq i32 %call32, 0
  br i1 %tobool33.not, label %return, label %lor.lhs.false34

lor.lhs.false34:                                  ; preds = %for.end
  %call37 = call i64 @EVP_MD_block_size(ptr noundef %spec.select) #5
  %call38 = call i32 @EVP_DigestUpdate(ptr noundef nonnull %i_ctx, ptr noundef nonnull %pad, i64 noundef %call37) #5
  %tobool39.not = icmp eq i32 %call38, 0
  br i1 %tobool39.not, label %return, label %for.body45

for.body45:                                       ; preds = %lor.lhs.false34, %for.body45
  %i.135 = phi i64 [ %inc52, %for.body45 ], [ 0, %lor.lhs.false34 ]
  %arrayidx46 = getelementptr inbounds nuw [128 x i8], ptr %key_block, i64 0, i64 %i.135
  %3 = load i8, ptr %arrayidx46, align 1
  %4 = xor i8 %3, 92
  %arrayidx50 = getelementptr inbounds nuw [128 x i8], ptr %pad, i64 0, i64 %i.135
  store i8 %4, ptr %arrayidx50, align 1
  %inc52 = add nuw nsw i64 %i.135, 1
  %exitcond36.not = icmp eq i64 %inc52, 128
  br i1 %exitcond36.not, label %for.end53, label %for.body45, !llvm.loop !9

for.end53:                                        ; preds = %for.body45
  %o_ctx = getelementptr inbounds nuw i8, ptr %ctx, i64 72
  %call54 = call i32 @EVP_DigestInit_ex(ptr noundef nonnull %o_ctx, ptr noundef %spec.select, ptr noundef %impl) #5
  %tobool55.not = icmp eq i32 %call54, 0
  br i1 %tobool55.not, label %return, label %lor.lhs.false56

lor.lhs.false56:                                  ; preds = %for.end53
  %call59 = call i64 @EVP_MD_block_size(ptr noundef %spec.select) #5
  %call60 = call i32 @EVP_DigestUpdate(ptr noundef nonnull %o_ctx, ptr noundef nonnull %pad, i64 noundef %call59) #5
  %tobool61.not = icmp eq i32 %call60, 0
  br i1 %tobool61.not, label %return, label %if.end63

if.end63:                                         ; preds = %lor.lhs.false56
  store ptr %spec.select, ptr %ctx, align 8
  br label %if.end65

if.end65:                                         ; preds = %entry, %if.end63
  %md_ctx66 = getelementptr inbounds nuw i8, ptr %ctx, i64 8
  %i_ctx67 = getelementptr inbounds nuw i8, ptr %ctx, i64 40
  %call68 = call i32 @EVP_MD_CTX_copy_ex(ptr noundef nonnull %md_ctx66, ptr noundef nonnull %i_ctx67) #5
  %tobool69.not = icmp ne i32 %call68, 0
  %. = zext i1 %tobool69.not to i32
  br label %return

return:                                           ; preds = %if.end65, %for.end53, %lor.lhs.false56, %for.end, %lor.lhs.false34, %if.then7, %lor.lhs.false9, %lor.lhs.false13
  %retval.0 = phi i32 [ 0, %lor.lhs.false13 ], [ 0, %lor.lhs.false9 ], [ 0, %if.then7 ], [ 0, %lor.lhs.false34 ], [ 0, %for.end ], [ 0, %lor.lhs.false56 ], [ 0, %for.end53 ], [ %., %if.end65 ]
  ret i32 %retval.0
}